ARM GAS  C:\Users\Vladimir\AppData\Local\Temp\ccUHVKXg.s 			page 1


   1              		.syntax unified
   2              		.cpu cortex-m3
   3              		.fpu softvfp
   4              		.eabi_attribute 20, 1
   5              		.eabi_attribute 21, 1
   6              		.eabi_attribute 23, 3
   7              		.eabi_attribute 24, 1
   8              		.eabi_attribute 25, 1
   9              		.eabi_attribute 26, 1
  10              		.eabi_attribute 30, 1
  11              		.eabi_attribute 34, 1
  12              		.eabi_attribute 18, 4
  13              		.thumb
  14              		.file	"main.c"
  15              		.text
  16              	.Ltext0:
  17              		.cfi_sections	.debug_frame
  18              		.global	__aeabi_i2f
  19              		.global	__aeabi_fsub
  20              		.global	__aeabi_fdiv
  21              		.global	__aeabi_f2d
  22              		.section	.text.p,"ax",%progbits
  23              		.align	2
  24              		.global	p
  25              		.thumb
  26              		.thumb_func
  27              		.type	p, %function
  28              	p:
  29              	.LFB64:
  30              		.file 1 "main.c"
   1:main.c        **** 
   2:main.c        **** 
   3:main.c        **** #include <project.h>
   4:main.c        **** #include <stdio.h>
   5:main.c        **** #include "Motor.h"
   6:main.c        **** #include "Ultra.h"
   7:main.c        **** #include "Nunchuk.h"
   8:main.c        **** #include "Reflectance.h"
   9:main.c        **** #include "I2C_made.h"
  10:main.c        **** #include "Gyro.h"
  11:main.c        **** #include "Accel_magnet.h"
  12:main.c        **** #include "IR.h"
  13:main.c        **** #include "Ambient.h"
  14:main.c        **** #include "Beep.h"
  15:main.c        **** 
  16:main.c        **** int rread(void);
  17:main.c        **** 
  18:main.c        **** 
  19:main.c        **** 
  20:main.c        **** 
  21:main.c        **** ///reflectance//
  22:main.c        **** 
  23:main.c        **** float p(int blackv, int curv, int whitev);
  24:main.c        **** float d (float error);
  25:main.c        **** void tank_turnR(uint8 l_speed, uint8 r_speed, uint32 delay); //necessary for sumo
  26:main.c        **** void tank_turnL(uint8 l_speed, uint8 r_speed, uint32 delay); //necessary for sumo
  27:main.c        **** int main()
ARM GAS  C:\Users\Vladimir\AppData\Local\Temp\ccUHVKXg.s 			page 2


  28:main.c        **** {
  29:main.c        ****     struct sensors_ ref;
  30:main.c        ****     struct sensors_ dig;
  31:main.c        ****     CyGlobalIntEnable; 
  32:main.c        ****     UART_1_Start();
  33:main.c        ****   
  34:main.c        ****     sensor_isr_StartEx(sensor_isr_handler);
  35:main.c        ****     
  36:main.c        ****     reflectance_start();
  37:main.c        ****     
  38:main.c        ****     IR_led_Write(1);
  39:main.c        ****    
  40:main.c        ****     float errorL = 0.0;
  41:main.c        ****     float errorR = 0.0;
  42:main.c        ****     float lasterrorl = 0.0;
  43:main.c        ****     float lasterrorr = 0.0;
  44:main.c        ****     float whitel1 = 5100.0;
  45:main.c        ****     float whiter1 = 5200.0;
  46:main.c        ****     float mspeed = 255.0;
  47:main.c        ****     float kP = 276.4063;
  48:main.c        ****     float kD = 0.0001;
  49:main.c        ****     float dl = 0.0;
  50:main.c        ****     float dr = 0.0;
  51:main.c        ****     float motorspeedleft = 0.0;
  52:main.c        ****     float motorspeedright = 0.0;
  53:main.c        ****     int flag = 0;
  54:main.c        ****     int count;
  55:main.c        ****     int IR_val = 0;
  56:main.c        ****     
  57:main.c        ****     
  58:main.c        **** 
  59:main.c        ****     
  60:main.c        ****     do //loop that brings the robot up to the starting line
  61:main.c        ****     {
  62:main.c        ****         
  63:main.c        ****     reflectance_read(&ref);
  64:main.c        ****     reflectance_digital(&dig);
  65:main.c        ****     motor_start();
  66:main.c        ****     motor_forward(100,15);
  67:main.c        ****     
  68:main.c        ****     }while(dig.r3 == 1 && dig.l3 == 1); //breaks when corner sensors see black
  69:main.c        ****     
  70:main.c        ****     motor_stop(0,0);
  71:main.c        ****     
  72:main.c        ****     do //loop waiting for IR input. Exits the loop upon receiving the signal
  73:main.c        ****     
  74:main.c        ****     {
  75:main.c        ****     IR_val = get_IR();
  76:main.c        ****     }while(!IR_val);
  77:main.c        ****     
  78:main.c        ****    
  79:main.c        ****     motor_start();
  80:main.c        ****     
  81:main.c        ****     //loop for navigating the track. Starts when IR signal is received
  82:main.c        ****     while(count < 3){
  83:main.c        ****         
  84:main.c        ****         /*
ARM GAS  C:\Users\Vladimir\AppData\Local\Temp\ccUHVKXg.s 			page 3


  85:main.c        ****         CyDelayUs(1);
  86:main.c        ****         reflectance_read(&ref);
  87:main.c        ****         printf("%d %d %d %d \r\n", ref.l3, ref.l1, ref.r1, ref.r3);       //print out each period o
  88:main.c        ****         reflectance_digital(&dig);      //print out 0 or 1 according to results of reflectance peri
  89:main.c        ****         printf("%d %d %d %d \r\n", dig.l3, dig.l1, dig.r1, dig.r3);        //print out 0 or 1 accor
  90:main.c        ****         
  91:main.c        ****         
  92:main.c        ****         errorL = 23999 - ref.l1; //calculates error from left sensor
  93:main.c        ****         errorR = 23999 - ref.r1; //calculatees error from right sensor
  94:main.c        ****         dl = errorR - lasterrorl; //calculate the drivative for turning left (Used for KD)
  95:main.c        ****         dr = errorL- lasterrorr; //calculate the drivative for turning right (Used for KD)
  96:main.c        ****         
  97:main.c        ****         lasterrorl = errorR;
  98:main.c        ****         lasterrorr = errorL;
  99:main.c        ****         
 100:main.c        ****         motorspeedleft = kP * p(23999, ref.r1, whiter1) + kD * dl; //makes the calculation for how 
 101:main.c        ****         motorspeedright = kP * p(23999, ref.l1, whitel1) + kD * dr;
 102:main.c        ****     
 103:main.c        ****         
 104:main.c        ****   
 105:main.c        ****         
 106:main.c        ****         
 107:main.c        ****         
 108:main.c        ****         
 109:main.c        ****             
 110:main.c        ****         if(dig.l3 == 0 && dig.r3 ==0 && flag == 0)// adds to the "count", when count = 3, the robot
 111:main.c        ****         
 112:main.c        ****         {
 113:main.c        ****         flag = 1;
 114:main.c        ****         count ++;
 115:main.c        ****         }
 116:main.c        ****          
 117:main.c        ****         if(dig.l3 == 1 && dig.r3 == 1 && flag == 1)
 118:main.c        ****         
 119:main.c        ****         {
 120:main.c        ****         flag = 0;
 121:main.c        ****         }
 122:main.c        ****         
 123:main.c        ****         if(ref.r1 > 8000 && ref.l1 > 8000) //as long as the 2 middle sensors reading are above 8000
 124:main.c        ****         
 125:main.c        ****         {
 126:main.c        ****         motor_turn( (uint8_t)(mspeed - motorspeedleft ), (uint8_t)(mspeed -  motorspeedright ), 1);
 127:main.c        ****         }
 128:main.c        ****         
 129:main.c        ****         
 130:main.c        ****         else if (ref.r3 >= 22999 ) //makes the robot turn right sharply when the right corner senso
 131:main.c        ****         
 132:main.c        ****         {
 133:main.c        ****          motor_turn(mspeed,0,1);
 134:main.c        ****         }
 135:main.c        ****         
 136:main.c        ****         else if (ref.l3 >=17700 ) //makes the robot turn left sharply when the left corner sensor s
 137:main.c        ****         
 138:main.c        ****         {
 139:main.c        ****                 motor_turn(0,mspeed,1);
 140:main.c        ****         }
 141:main.c        ****        
ARM GAS  C:\Users\Vladimir\AppData\Local\Temp\ccUHVKXg.s 			page 4


 142:main.c        ****     }
 143:main.c        ****       */ 
 144:main.c        ****            
 145:main.c        ****         
 146:main.c        ****     
 147:main.c        ****         
 148:main.c        ****     //Sumo
 149:main.c        ****     
 150:main.c        ****     CyDelayUs(1);
 151:main.c        ****         reflectance_read(&ref);
 152:main.c        ****         printf("%d %d %d %d \r\n", ref.l3, ref.l1, ref.r1, ref.r3);       //print out each period o
 153:main.c        ****         reflectance_digital(&dig);      //print out 0 or 1 according to results of reflectance peri
 154:main.c        ****         printf("%d %d %d %d \r\n", dig.l3, dig.l1, dig.r1, dig.r3);        //print out 0 or 1 accor
 155:main.c        ****     
 156:main.c        ****         
 157:main.c        ****     if(ref.l1 > 19000 && ref.r1 > 19000)  //moves the robot into the ring from the starting line
 158:main.c        ****     {
 159:main.c        ****     motor_forward(mspeed, 600);
 160:main.c        ****     }
 161:main.c        ****         
 162:main.c        ****     else if (dig.r1 == 1 && dig.l1 == 1 && dig.r3 == 1  && dig.l3 == 1) //makes the robot go forwar
 163:main.c        ****     {
 164:main.c        ****     
 165:main.c        ****     motor_forward(mspeed,1);
 166:main.c        ****     }
 167:main.c        ****     
 168:main.c        ****     else if(ref.l3 > 10000) //makes the robot go back and turn right if the left corner sensor sees
 169:main.c        ****     {
 170:main.c        ****         
 171:main.c        ****     motor_backward(mspeed, 225);
 172:main.c        ****     tank_turnR(mspeed, mspeed, 400);
 173:main.c        ****     }
 174:main.c        ****     
 175:main.c        ****     else if(ref.r3 > 10000) //makes the robot go back and turn right if the left corner sensor sees
 176:main.c        ****     {
 177:main.c        ****     motor_backward(mspeed, 225);
 178:main.c        ****     tank_turnL(mspeed, mspeed, 400);
 179:main.c        ****     }
 180:main.c        ****     
 181:main.c        ****     
 182:main.c        ****     //motor_stop(0,0);
 183:main.c        **** }
 184:main.c        **** }
 185:main.c        **** 
 186:main.c        **** float p(int blackv, int curv, int whitev){  //calculate the "p" for the PD controls
  31              		.loc 1 186 0
  32              		.cfi_startproc
  33              		@ args = 0, pretend = 0, frame = 0
  34              		@ frame_needed = 0, uses_anonymous_args = 0
  35              	.LVL0:
  36 0000 70B5     		push	{r4, r5, r6, lr}
  37              		.cfi_def_cfa_offset 16
  38              		.cfi_offset 4, -16
  39              		.cfi_offset 5, -12
  40              		.cfi_offset 6, -8
  41              		.cfi_offset 14, -4
  42 0002 0D46     		mov	r5, r1
ARM GAS  C:\Users\Vladimir\AppData\Local\Temp\ccUHVKXg.s 			page 5


  43 0004 1646     		mov	r6, r2
  44              	.LVL1:
 187:main.c        **** 
 188:main.c        ****     float p = 0.0;
 189:main.c        ****     
 190:main.c        ****      
 191:main.c        ****         p = ((float)blackv - curv)/((float)blackv - whitev);
  45              		.loc 1 191 0
  46 0006 FFF7FEFF 		bl	__aeabi_i2f
  47              	.LVL2:
  48 000a 0446     		mov	r4, r0
  49 000c 2846     		mov	r0, r5
  50 000e FFF7FEFF 		bl	__aeabi_i2f
  51              	.LVL3:
  52 0012 0146     		mov	r1, r0
  53 0014 2046     		mov	r0, r4
  54 0016 FFF7FEFF 		bl	__aeabi_fsub
  55              	.LVL4:
  56 001a 0546     		mov	r5, r0
  57              	.LVL5:
  58 001c 3046     		mov	r0, r6
  59 001e FFF7FEFF 		bl	__aeabi_i2f
  60              	.LVL6:
  61 0022 0146     		mov	r1, r0
  62 0024 2046     		mov	r0, r4
  63 0026 FFF7FEFF 		bl	__aeabi_fsub
  64              	.LVL7:
  65 002a 0146     		mov	r1, r0
  66 002c 2846     		mov	r0, r5
  67 002e FFF7FEFF 		bl	__aeabi_fdiv
  68              	.LVL8:
  69 0032 0446     		mov	r4, r0
  70              	.LVL9:
 192:main.c        ****         printf("%f \n", p);
  71              		.loc 1 192 0
  72 0034 FFF7FEFF 		bl	__aeabi_f2d
  73              	.LVL10:
  74 0038 0246     		mov	r2, r0
  75 003a 0B46     		mov	r3, r1
  76 003c 0248     		ldr	r0, .L3
  77 003e FFF7FEFF 		bl	printf
  78              	.LVL11:
 193:main.c        ****         return p;
 194:main.c        ****        
 195:main.c        ****     
 196:main.c        ****      
 197:main.c        **** }
  79              		.loc 1 197 0
  80 0042 2046     		mov	r0, r4
  81 0044 70BD     		pop	{r4, r5, r6, pc}
  82              	.LVL12:
  83              	.L4:
  84 0046 00BF     		.align	2
  85              	.L3:
  86 0048 00000000 		.word	.LC0
  87              		.cfi_endproc
  88              	.LFE64:
ARM GAS  C:\Users\Vladimir\AppData\Local\Temp\ccUHVKXg.s 			page 6


  89              		.size	p, .-p
  90              		.section	.text.tank_turnR,"ax",%progbits
  91              		.align	2
  92              		.global	tank_turnR
  93              		.thumb
  94              		.thumb_func
  95              		.type	tank_turnR, %function
  96              	tank_turnR:
  97              	.LFB65:
 198:main.c        **** 
 199:main.c        **** 
 200:main.c        **** 
 201:main.c        **** 
 202:main.c        **** 
 203:main.c        ****  
 204:main.c        **** 
 205:main.c        **** 
 206:main.c        **** 
 207:main.c        ****     
 208:main.c        ****     //pilot mode//
 209:main.c        **** /*int main()
 210:main.c        **** {
 211:main.c        ****     CyGlobalIntEnable; 
 212:main.c        ****     UART_1_Start();
 213:main.c        ****     
 214:main.c        ****     int start = 0;
 215:main.c        ****     
 216:main.c        ****     
 217:main.c        ****     
 218:main.c        ****     
 219:main.c        ****          
 220:main.c        ****         
 221:main.c        ****     do{
 222:main.c        ****    
 223:main.c        ****         printf("Enter number(1=forward, 2=tankleft, 3=tankright, 4=back): \n");
 224:main.c        ****          scanf("%d", &start);
 225:main.c        ****     
 226:main.c        ****         
 227:main.c        ****         
 228:main.c        ****         if(start == 1){
 229:main.c        ****     
 230:main.c        ****         motor_start();              // motor start
 231:main.c        ****         motor_forward(500,200);     // moving forward
 232:main.c        ****         motor_stop();
 233:main.c        ****         start = 0;
 234:main.c        ****         }
 235:main.c        ****     
 236:main.c        ****         if(start == 2){
 237:main.c        ****         motor_start(); 
 238:main.c        ****         tank_turnR(200,200,100);     // turn right
 239:main.c        ****     
 240:main.c        ****         motor_stop();
 241:main.c        ****         start = 0;
 242:main.c        ****         }
 243:main.c        ****     
 244:main.c        ****         if(start == 3){
 245:main.c        ****     
ARM GAS  C:\Users\Vladimir\AppData\Local\Temp\ccUHVKXg.s 			page 7


 246:main.c        ****         motor_start();
 247:main.c        ****         tank_turnL(200,200,100);     // turn left
 248:main.c        ****         motor_stop();
 249:main.c        ****         start = 0;
 250:main.c        ****         }
 251:main.c        ****     
 252:main.c        ****     if(start == 4){
 253:main.c        ****     
 254:main.c        ****     motor_start(); 
 255:main.c        ****     motor_backward(500,200);     // movinb backward
 256:main.c        ****     motor_stop();
 257:main.c        ****     start = 0;
 258:main.c        ****     }
 259:main.c        ****     
 260:main.c        ****     if(start == 9) {
 261:main.c        ****     motor_backward(0,1000);     // movinb backward
 262:main.c        ****     motor_stop();
 263:main.c        ****     start = 0;
 264:main.c        ****     }
 265:main.c        ****     
 266:main.c        ****     if(start == 8){
 267:main.c        ****     
 268:main.c        ****     motor_start();              
 269:main.c        ****     motor_forward(0,1000);     
 270:main.c        ****     motor_stop();
 271:main.c        ****     start = 0;
 272:main.c        ****     }
 273:main.c        ****     
 274:main.c        ****         else{
 275:main.c        ****         motor_stop();               // motor stop
 276:main.c        ****         start = 0;
 277:main.c        ****         }
 278:main.c        ****     
 279:main.c        ****     
 280:main.c        ****     }while(start == 0);
 281:main.c        ****     
 282:main.c        **** 
 283:main.c        ****     
 284:main.c        ****     for(;;)
 285:main.c        ****     {
 286:main.c        **** 
 287:main.c        ****     }
 288:main.c        **** }*/
 289:main.c        **** 
 290:main.c        **** void tank_turnR(uint8 l_speed, uint8 r_speed, uint32 delay)
 291:main.c        **** {
  98              		.loc 1 291 0
  99              		.cfi_startproc
 100              		@ args = 0, pretend = 0, frame = 0
 101              		@ frame_needed = 0, uses_anonymous_args = 0
 102              	.LVL13:
 103 0000 70B5     		push	{r4, r5, r6, lr}
 104              		.cfi_def_cfa_offset 16
 105              		.cfi_offset 4, -16
 106              		.cfi_offset 5, -12
 107              		.cfi_offset 6, -8
 108              		.cfi_offset 14, -4
ARM GAS  C:\Users\Vladimir\AppData\Local\Temp\ccUHVKXg.s 			page 8


 109 0002 0646     		mov	r6, r0
 110 0004 0D46     		mov	r5, r1
 111 0006 1446     		mov	r4, r2
 292:main.c        ****     MotorDirLeft_Write(1);      // set LeftMotor backward mode
 112              		.loc 1 292 0
 113 0008 0120     		movs	r0, #1
 114              	.LVL14:
 115 000a FFF7FEFF 		bl	MotorDirLeft_Write
 116              	.LVL15:
 293:main.c        ****     MotorDirRight_Write(0);
 117              		.loc 1 293 0
 118 000e 0020     		movs	r0, #0
 119 0010 FFF7FEFF 		bl	MotorDirRight_Write
 120              	.LVL16:
 294:main.c        ****     PWM_WriteCompare1(l_speed); 
 121              		.loc 1 294 0
 122 0014 3046     		mov	r0, r6
 123 0016 FFF7FEFF 		bl	PWM_WriteCompare1
 124              	.LVL17:
 295:main.c        ****     PWM_WriteCompare2(r_speed); 
 125              		.loc 1 295 0
 126 001a 2846     		mov	r0, r5
 127 001c FFF7FEFF 		bl	PWM_WriteCompare2
 128              	.LVL18:
 296:main.c        ****     CyDelay(delay);
 129              		.loc 1 296 0
 130 0020 2046     		mov	r0, r4
 131 0022 FFF7FEFF 		bl	CyDelay
 132              	.LVL19:
 133 0026 70BD     		pop	{r4, r5, r6, pc}
 134              		.cfi_endproc
 135              	.LFE65:
 136              		.size	tank_turnR, .-tank_turnR
 137              		.section	.text.tank_turnL,"ax",%progbits
 138              		.align	2
 139              		.global	tank_turnL
 140              		.thumb
 141              		.thumb_func
 142              		.type	tank_turnL, %function
 143              	tank_turnL:
 144              	.LFB66:
 297:main.c        **** }
 298:main.c        **** 
 299:main.c        **** void tank_turnL(uint8 l_speed, uint8 r_speed, uint32 delay)
 300:main.c        **** {
 145              		.loc 1 300 0
 146              		.cfi_startproc
 147              		@ args = 0, pretend = 0, frame = 0
 148              		@ frame_needed = 0, uses_anonymous_args = 0
 149              	.LVL20:
 150 0000 70B5     		push	{r4, r5, r6, lr}
 151              		.cfi_def_cfa_offset 16
 152              		.cfi_offset 4, -16
 153              		.cfi_offset 5, -12
 154              		.cfi_offset 6, -8
 155              		.cfi_offset 14, -4
 156 0002 0646     		mov	r6, r0
ARM GAS  C:\Users\Vladimir\AppData\Local\Temp\ccUHVKXg.s 			page 9


 157 0004 0D46     		mov	r5, r1
 158 0006 1446     		mov	r4, r2
 301:main.c        ****     MotorDirLeft_Write(0);      // set LeftMotor backward mode
 159              		.loc 1 301 0
 160 0008 0020     		movs	r0, #0
 161              	.LVL21:
 162 000a FFF7FEFF 		bl	MotorDirLeft_Write
 163              	.LVL22:
 302:main.c        ****     MotorDirRight_Write(1);
 164              		.loc 1 302 0
 165 000e 0120     		movs	r0, #1
 166 0010 FFF7FEFF 		bl	MotorDirRight_Write
 167              	.LVL23:
 303:main.c        ****     PWM_WriteCompare1(l_speed); 
 168              		.loc 1 303 0
 169 0014 3046     		mov	r0, r6
 170 0016 FFF7FEFF 		bl	PWM_WriteCompare1
 171              	.LVL24:
 304:main.c        ****     PWM_WriteCompare2(r_speed); 
 172              		.loc 1 304 0
 173 001a 2846     		mov	r0, r5
 174 001c FFF7FEFF 		bl	PWM_WriteCompare2
 175              	.LVL25:
 305:main.c        ****     CyDelay(delay);
 176              		.loc 1 305 0
 177 0020 2046     		mov	r0, r4
 178 0022 FFF7FEFF 		bl	CyDelay
 179              	.LVL26:
 180 0026 70BD     		pop	{r4, r5, r6, pc}
 181              		.cfi_endproc
 182              	.LFE66:
 183              		.size	tank_turnL, .-tank_turnL
 184              		.section	.text.main,"ax",%progbits
 185              		.align	2
 186              		.global	main
 187              		.thumb
 188              		.thumb_func
 189              		.type	main, %function
 190              	main:
 191              	.LFB63:
  28:main.c        ****     struct sensors_ ref;
 192              		.loc 1 28 0
 193              		.cfi_startproc
 194              		@ args = 0, pretend = 0, frame = 16
 195              		@ frame_needed = 0, uses_anonymous_args = 0
 196 0000 10B5     		push	{r4, lr}
 197              		.cfi_def_cfa_offset 8
 198              		.cfi_offset 4, -8
 199              		.cfi_offset 14, -4
 200 0002 86B0     		sub	sp, sp, #24
 201              		.cfi_def_cfa_offset 32
  31:main.c        ****     UART_1_Start();
 202              		.loc 1 31 0
 203              	@ 31 "main.c" 1
 204 0004 62B6     		CPSIE   i
 205              	@ 0 "" 2
  32:main.c        ****   
ARM GAS  C:\Users\Vladimir\AppData\Local\Temp\ccUHVKXg.s 			page 10


 206              		.loc 1 32 0
 207              		.thumb
 208 0006 FFF7FEFF 		bl	UART_1_Start
 209              	.LVL27:
  34:main.c        ****     
 210              		.loc 1 34 0
 211 000a 4748     		ldr	r0, .L20
 212 000c FFF7FEFF 		bl	sensor_isr_StartEx
 213              	.LVL28:
  36:main.c        ****     
 214              		.loc 1 36 0
 215 0010 FFF7FEFF 		bl	reflectance_start
 216              	.LVL29:
  38:main.c        ****    
 217              		.loc 1 38 0
 218 0014 0120     		movs	r0, #1
 219 0016 FFF7FEFF 		bl	IR_led_Write
 220              	.LVL30:
 221              	.L11:
  63:main.c        ****     reflectance_digital(&dig);
 222              		.loc 1 63 0 discriminator 2
 223 001a 04A8     		add	r0, sp, #16
 224 001c FFF7FEFF 		bl	reflectance_read
 225              	.LVL31:
  64:main.c        ****     motor_start();
 226              		.loc 1 64 0 discriminator 2
 227 0020 02A8     		add	r0, sp, #8
 228 0022 FFF7FEFF 		bl	reflectance_digital
 229              	.LVL32:
  65:main.c        ****     motor_forward(100,15);
 230              		.loc 1 65 0 discriminator 2
 231 0026 FFF7FEFF 		bl	motor_start
 232              	.LVL33:
  66:main.c        ****     
 233              		.loc 1 66 0 discriminator 2
 234 002a 6420     		movs	r0, #100
 235 002c 0F21     		movs	r1, #15
 236 002e FFF7FEFF 		bl	motor_forward
 237              	.LVL34:
  68:main.c        ****     
 238              		.loc 1 68 0 discriminator 2
 239 0032 BDF80E30 		ldrh	r3, [sp, #14]
 240 0036 012B     		cmp	r3, #1
 241 0038 03D1     		bne	.L10
  68:main.c        ****     
 242              		.loc 1 68 0 is_stmt 0 discriminator 1
 243 003a BDF80830 		ldrh	r3, [sp, #8]
 244 003e 012B     		cmp	r3, #1
 245 0040 EBD0     		beq	.L11
 246              	.L10:
  70:main.c        ****     
 247              		.loc 1 70 0 is_stmt 1
 248 0042 0020     		movs	r0, #0
 249 0044 0146     		mov	r1, r0
 250 0046 FFF7FEFF 		bl	motor_stop
 251              	.LVL35:
 252              	.L12:
ARM GAS  C:\Users\Vladimir\AppData\Local\Temp\ccUHVKXg.s 			page 11


  75:main.c        ****     }while(!IR_val);
 253              		.loc 1 75 0 discriminator 1
 254 004a FFF7FEFF 		bl	get_IR
 255              	.LVL36:
  76:main.c        ****     
 256              		.loc 1 76 0 discriminator 1
 257 004e 0028     		cmp	r0, #0
 258 0050 FBD0     		beq	.L12
  79:main.c        ****     
 259              		.loc 1 79 0
 260 0052 FFF7FEFF 		bl	motor_start
 261              	.LVL37:
 262              	.L18:
 150:main.c        ****         reflectance_read(&ref);
 263              		.loc 1 150 0
 264 0056 0120     		movs	r0, #1
 265 0058 FFF7FEFF 		bl	CyDelayUs
 266              	.LVL38:
 151:main.c        ****         printf("%d %d %d %d \r\n", ref.l3, ref.l1, ref.r1, ref.r3);       //print out each period o
 267              		.loc 1 151 0
 268 005c 04A8     		add	r0, sp, #16
 269 005e FFF7FEFF 		bl	reflectance_read
 270              	.LVL39:
 152:main.c        ****         reflectance_digital(&dig);      //print out 0 or 1 according to results of reflectance peri
 271              		.loc 1 152 0
 272 0062 BDF81010 		ldrh	r1, [sp, #16]
 273 0066 BDF81220 		ldrh	r2, [sp, #18]
 274 006a BDF81430 		ldrh	r3, [sp, #20]
 275 006e BDF81600 		ldrh	r0, [sp, #22]
 276 0072 2E4C     		ldr	r4, .L20+4
 277 0074 0090     		str	r0, [sp]
 278 0076 2046     		mov	r0, r4
 279 0078 FFF7FEFF 		bl	printf
 280              	.LVL40:
 153:main.c        ****         printf("%d %d %d %d \r\n", dig.l3, dig.l1, dig.r1, dig.r3);        //print out 0 or 1 accor
 281              		.loc 1 153 0
 282 007c 02A8     		add	r0, sp, #8
 283 007e FFF7FEFF 		bl	reflectance_digital
 284              	.LVL41:
 154:main.c        ****     
 285              		.loc 1 154 0
 286 0082 BDF80810 		ldrh	r1, [sp, #8]
 287 0086 BDF80A20 		ldrh	r2, [sp, #10]
 288 008a BDF80C30 		ldrh	r3, [sp, #12]
 289 008e BDF80E00 		ldrh	r0, [sp, #14]
 290 0092 0090     		str	r0, [sp]
 291 0094 2046     		mov	r0, r4
 292 0096 FFF7FEFF 		bl	printf
 293              	.LVL42:
 157:main.c        ****     {
 294              		.loc 1 157 0
 295 009a BDF81220 		ldrh	r2, [sp, #18]
 296 009e 44F63823 		movw	r3, #19000
 297 00a2 9A42     		cmp	r2, r3
 298 00a4 09D9     		bls	.L14
 157:main.c        ****     {
 299              		.loc 1 157 0 is_stmt 0 discriminator 1
ARM GAS  C:\Users\Vladimir\AppData\Local\Temp\ccUHVKXg.s 			page 12


 300 00a6 BDF81420 		ldrh	r2, [sp, #20]
 301 00aa 9A42     		cmp	r2, r3
 302 00ac 05D9     		bls	.L14
 159:main.c        ****     }
 303              		.loc 1 159 0 is_stmt 1
 304 00ae FF20     		movs	r0, #255
 305 00b0 4FF41671 		mov	r1, #600
 306 00b4 FFF7FEFF 		bl	motor_forward
 307              	.LVL43:
 308 00b8 CDE7     		b	.L18
 309              	.L14:
 162:main.c        ****     {
 310              		.loc 1 162 0
 311 00ba BDF80C30 		ldrh	r3, [sp, #12]
 312 00be 012B     		cmp	r3, #1
 313 00c0 10D1     		bne	.L16
 162:main.c        ****     {
 314              		.loc 1 162 0 is_stmt 0 discriminator 1
 315 00c2 BDF80A30 		ldrh	r3, [sp, #10]
 316 00c6 012B     		cmp	r3, #1
 317 00c8 0CD1     		bne	.L16
 162:main.c        ****     {
 318              		.loc 1 162 0 discriminator 2
 319 00ca BDF80E30 		ldrh	r3, [sp, #14]
 320 00ce 012B     		cmp	r3, #1
 321 00d0 08D1     		bne	.L16
 162:main.c        ****     {
 322              		.loc 1 162 0 discriminator 3
 323 00d2 BDF80830 		ldrh	r3, [sp, #8]
 324 00d6 012B     		cmp	r3, #1
 325 00d8 04D1     		bne	.L16
 165:main.c        ****     }
 326              		.loc 1 165 0 is_stmt 1
 327 00da FF20     		movs	r0, #255
 328 00dc 0121     		movs	r1, #1
 329 00de FFF7FEFF 		bl	motor_forward
 330              	.LVL44:
 331 00e2 B8E7     		b	.L18
 332              	.L16:
 168:main.c        ****     {
 333              		.loc 1 168 0
 334 00e4 BDF81020 		ldrh	r2, [sp, #16]
 335 00e8 42F21073 		movw	r3, #10000
 336 00ec 9A42     		cmp	r2, r3
 337 00ee 0AD9     		bls	.L17
 171:main.c        ****     tank_turnR(mspeed, mspeed, 400);
 338              		.loc 1 171 0
 339 00f0 FF20     		movs	r0, #255
 340 00f2 E121     		movs	r1, #225
 341 00f4 FFF7FEFF 		bl	motor_backward
 342              	.LVL45:
 172:main.c        ****     }
 343              		.loc 1 172 0
 344 00f8 FF20     		movs	r0, #255
 345 00fa 0146     		mov	r1, r0
 346 00fc 4FF4C872 		mov	r2, #400
 347 0100 FFF7FEFF 		bl	tank_turnR
ARM GAS  C:\Users\Vladimir\AppData\Local\Temp\ccUHVKXg.s 			page 13


 348              	.LVL46:
 349 0104 A7E7     		b	.L18
 350              	.L17:
 175:main.c        ****     {
 351              		.loc 1 175 0
 352 0106 BDF81620 		ldrh	r2, [sp, #22]
 353 010a 42F21073 		movw	r3, #10000
 354 010e 9A42     		cmp	r2, r3
 355 0110 A1D9     		bls	.L18
 177:main.c        ****     tank_turnL(mspeed, mspeed, 400);
 356              		.loc 1 177 0
 357 0112 FF20     		movs	r0, #255
 358 0114 E121     		movs	r1, #225
 359 0116 FFF7FEFF 		bl	motor_backward
 360              	.LVL47:
 178:main.c        ****     }
 361              		.loc 1 178 0
 362 011a FF20     		movs	r0, #255
 363 011c 0146     		mov	r1, r0
 364 011e 4FF4C872 		mov	r2, #400
 365 0122 FFF7FEFF 		bl	tank_turnL
 366              	.LVL48:
 367 0126 96E7     		b	.L18
 368              	.L21:
 369              		.align	2
 370              	.L20:
 371 0128 00000000 		.word	sensor_isr_handler
 372 012c 08000000 		.word	.LC1
 373              		.cfi_endproc
 374              	.LFE63:
 375              		.size	main, .-main
 376              		.section	.text._write,"ax",%progbits
 377              		.align	2
 378              		.global	_write
 379              		.thumb
 380              		.thumb_func
 381              		.type	_write, %function
 382              	_write:
 383              	.LFB67:
 306:main.c        **** }
 307:main.c        **** //
 308:main.c        ****     
 309:main.c        **** 
 310:main.c        **** 
 311:main.c        **** 
 312:main.c        **** 
 313:main.c        **** #if 0
 314:main.c        **** int rread(void)
 315:main.c        **** {
 316:main.c        ****     SC0_SetDriveMode(PIN_DM_STRONG);
 317:main.c        ****     SC0_Write(1);
 318:main.c        ****     CyDelayUs(10);
 319:main.c        ****     SC0_SetDriveMode(PIN_DM_DIG_HIZ);
 320:main.c        ****     Timer_1_Start();
 321:main.c        ****     uint16_t start = Timer_1_ReadCounter();
 322:main.c        ****     uint16_t end = 0;
 323:main.c        ****     while(!(Timer_1_ReadStatusRegister() & Timer_1_STATUS_TC)) {
ARM GAS  C:\Users\Vladimir\AppData\Local\Temp\ccUHVKXg.s 			page 14


 324:main.c        ****         if(SC0_Read() == 0 && end == 0) {
 325:main.c        ****             end = Timer_1_ReadCounter();
 326:main.c        ****         }
 327:main.c        ****     }
 328:main.c        ****     Timer_1_Stop();
 329:main.c        ****     
 330:main.c        ****     return (start - end);
 331:main.c        **** }
 332:main.c        **** #endif
 333:main.c        **** 
 334:main.c        **** /* Don't remove the functions below */
 335:main.c        **** int _write(int file, char *ptr, int len)
 336:main.c        **** {
 384              		.loc 1 336 0
 385              		.cfi_startproc
 386              		@ args = 0, pretend = 0, frame = 0
 387              		@ frame_needed = 0, uses_anonymous_args = 0
 388              	.LVL49:
 389 0000 F8B5     		push	{r3, r4, r5, r6, r7, lr}
 390              		.cfi_def_cfa_offset 24
 391              		.cfi_offset 3, -24
 392              		.cfi_offset 4, -20
 393              		.cfi_offset 5, -16
 394              		.cfi_offset 6, -12
 395              		.cfi_offset 7, -8
 396              		.cfi_offset 14, -4
 397 0002 0C46     		mov	r4, r1
 398 0004 1746     		mov	r7, r2
 399              	.LVL50:
 337:main.c        ****     (void)file; /* Parameter is not used, suppress unused argument warning */
 338:main.c        **** 	int n;
 339:main.c        **** 	for(n = 0; n < len; n++) {
 400              		.loc 1 339 0
 401 0006 0025     		movs	r5, #0
 402 0008 0BE0     		b	.L23
 403              	.LVL51:
 404              	.L25:
 340:main.c        ****         if(*ptr == '\n') UART_1_PutChar('\r');
 405              		.loc 1 340 0
 406 000a 2378     		ldrb	r3, [r4]	@ zero_extendqisi2
 407 000c 0A2B     		cmp	r3, #10
 408 000e 02D1     		bne	.L24
 409              		.loc 1 340 0 is_stmt 0 discriminator 1
 410 0010 0D20     		movs	r0, #13
 411 0012 FFF7FEFF 		bl	UART_1_PutChar
 412              	.LVL52:
 413              	.L24:
 341:main.c        **** 		UART_1_PutChar(*ptr++);
 414              		.loc 1 341 0 is_stmt 1 discriminator 2
 415 0016 661C     		adds	r6, r4, #1
 416              	.LVL53:
 417 0018 2078     		ldrb	r0, [r4]	@ zero_extendqisi2
 418 001a FFF7FEFF 		bl	UART_1_PutChar
 419              	.LVL54:
 339:main.c        ****         if(*ptr == '\n') UART_1_PutChar('\r');
 420              		.loc 1 339 0 discriminator 2
 421 001e 0135     		adds	r5, r5, #1
ARM GAS  C:\Users\Vladimir\AppData\Local\Temp\ccUHVKXg.s 			page 15


 422              	.LVL55:
 423              		.loc 1 341 0 discriminator 2
 424 0020 3446     		mov	r4, r6
 425              	.LVL56:
 426              	.L23:
 339:main.c        ****         if(*ptr == '\n') UART_1_PutChar('\r');
 427              		.loc 1 339 0 discriminator 1
 428 0022 BD42     		cmp	r5, r7
 429 0024 F1DB     		blt	.L25
 342:main.c        **** 	}
 343:main.c        **** 	return len;
 344:main.c        **** }
 430              		.loc 1 344 0
 431 0026 3846     		mov	r0, r7
 432 0028 F8BD     		pop	{r3, r4, r5, r6, r7, pc}
 433              		.cfi_endproc
 434              	.LFE67:
 435              		.size	_write, .-_write
 436 002a 00BF     		.section	.text._read,"ax",%progbits
 437              		.align	2
 438              		.global	_read
 439              		.thumb
 440              		.thumb_func
 441              		.type	_read, %function
 442              	_read:
 443              	.LFB68:
 345:main.c        **** 
 346:main.c        **** int _read (int file, char *ptr, int count)
 347:main.c        **** {
 444              		.loc 1 347 0
 445              		.cfi_startproc
 446              		@ args = 0, pretend = 0, frame = 0
 447              		@ frame_needed = 0, uses_anonymous_args = 0
 448              	.LVL57:
 449 0000 F8B5     		push	{r3, r4, r5, r6, r7, lr}
 450              		.cfi_def_cfa_offset 24
 451              		.cfi_offset 3, -24
 452              		.cfi_offset 4, -20
 453              		.cfi_offset 5, -16
 454              		.cfi_offset 6, -12
 455              		.cfi_offset 7, -8
 456              		.cfi_offset 14, -4
 457 0002 0F46     		mov	r7, r1
 458 0004 1446     		mov	r4, r2
 459              	.LVL58:
 348:main.c        ****     int chs = 0;
 460              		.loc 1 348 0
 461 0006 0026     		movs	r6, #0
 349:main.c        ****     char ch;
 350:main.c        ****  
 351:main.c        ****     (void)file; /* Parameter is not used, suppress unused argument warning */
 352:main.c        ****     while(count > 0) {
 462              		.loc 1 352 0
 463 0008 12E0     		b	.L29
 464              	.LVL59:
 465              	.L32:
 353:main.c        ****         ch = UART_1_GetChar();
ARM GAS  C:\Users\Vladimir\AppData\Local\Temp\ccUHVKXg.s 			page 16


 466              		.loc 1 353 0
 467 000a FFF7FEFF 		bl	UART_1_GetChar
 468              	.LVL60:
 354:main.c        ****         if(ch != 0) {
 469              		.loc 1 354 0
 470 000e 0546     		mov	r5, r0
 471 0010 70B1     		cbz	r0, .L29
 355:main.c        ****             UART_1_PutChar(ch);
 472              		.loc 1 355 0
 473 0012 FFF7FEFF 		bl	UART_1_PutChar
 474              	.LVL61:
 356:main.c        ****             chs++;
 475              		.loc 1 356 0
 476 0016 0136     		adds	r6, r6, #1
 477              	.LVL62:
 357:main.c        ****             if(ch == '\r') {
 478              		.loc 1 357 0
 479 0018 0D2D     		cmp	r5, #13
 480 001a 03D1     		bne	.L30
 481              	.LVL63:
 358:main.c        ****                 ch = '\n';
 359:main.c        ****                 UART_1_PutChar(ch);
 482              		.loc 1 359 0
 483 001c 0A20     		movs	r0, #10
 484 001e FFF7FEFF 		bl	UART_1_PutChar
 485              	.LVL64:
 358:main.c        ****                 ch = '\n';
 486              		.loc 1 358 0
 487 0022 0A25     		movs	r5, #10
 488              	.LVL65:
 489              	.L30:
 360:main.c        ****             }
 361:main.c        ****             *ptr++ = ch;
 490              		.loc 1 361 0
 491 0024 7B1C     		adds	r3, r7, #1
 492              	.LVL66:
 493 0026 3D70     		strb	r5, [r7]
 362:main.c        ****             count--;
 494              		.loc 1 362 0
 495 0028 013C     		subs	r4, r4, #1
 496              	.LVL67:
 363:main.c        ****             if(ch == '\n') break;
 497              		.loc 1 363 0
 498 002a 0A2D     		cmp	r5, #10
 499 002c 02D0     		beq	.L31
 361:main.c        ****             count--;
 500              		.loc 1 361 0
 501 002e 1F46     		mov	r7, r3
 502              	.LVL68:
 503              	.L29:
 352:main.c        ****         ch = UART_1_GetChar();
 504              		.loc 1 352 0
 505 0030 002C     		cmp	r4, #0
 506 0032 EADC     		bgt	.L32
 507              	.LVL69:
 508              	.L31:
 364:main.c        ****         }
ARM GAS  C:\Users\Vladimir\AppData\Local\Temp\ccUHVKXg.s 			page 17


 365:main.c        ****     }
 366:main.c        ****     return chs;
 367:main.c        **** }
 509              		.loc 1 367 0
 510 0034 3046     		mov	r0, r6
 511 0036 F8BD     		pop	{r3, r4, r5, r6, r7, pc}
 512              		.cfi_endproc
 513              	.LFE68:
 514              		.size	_read, .-_read
 515              		.section	.rodata.str1.4,"aMS",%progbits,1
 516              		.align	2
 517              	.LC0:
 518 0000 2566200A 		.ascii	"%f \012\000"
 518      00
 519 0005 000000   		.space	3
 520              	.LC1:
 521 0008 25642025 		.ascii	"%d %d %d %d \015\012\000"
 521      64202564 
 521      20256420 
 521      0D0A00
 522 0017 00       		.text
 523              	.Letext0:
 524              		.file 2 "c:\\program files (x86)\\cypress\\psoc creator\\4.0\\psoc creator\\import\\gnu\\arm\\4.9.
 525              		.file 3 "c:\\program files (x86)\\cypress\\psoc creator\\4.0\\psoc creator\\import\\gnu\\arm\\4.9.
 526              		.file 4 "Generated_Source\\PSoC5/cytypes.h"
 527              		.file 5 ".\\ZumoLibrary/Reflectance.h"
 528              		.file 6 "Generated_Source\\PSoC5/MotorDirLeft.h"
 529              		.file 7 "Generated_Source\\PSoC5/MotorDirRight.h"
 530              		.file 8 "Generated_Source\\PSoC5/PWM.h"
 531              		.file 9 "Generated_Source\\PSoC5/CyLib.h"
 532              		.file 10 "Generated_Source\\PSoC5/sensor_isr.h"
 533              		.file 11 "Generated_Source\\PSoC5/UART_1.h"
 534              		.file 12 "Generated_Source\\PSoC5/IR_led.h"
 535              		.file 13 ".\\ZumoLibrary/Motor.h"
 536              		.file 14 ".\\ZumoLibrary/IR.h"
 537              		.file 15 "Generated_Source\\PSoC5/core_cm3.h"
 538              		.file 16 "c:\\program files (x86)\\cypress\\psoc creator\\4.0\\psoc creator\\import\\gnu\\arm\\4.9